; ModuleID = '16/886.c'
source_filename = "16/886.c"
target datalayout = "e-m:e-p270:32:32-p271:32:32-p272:64:64-i64:64-f80:128-n8:16:32:64-S128"
target triple = "x86_64-pc-linux-gnu"

@.str = private unnamed_addr constant [3 x i8] c"%d\00", align 1
@.str.1 = private unnamed_addr constant [11 x i8] c"%d%d%d%d%d\00", align 1
@.str.2 = private unnamed_addr constant [9 x i8] c"%d%d%d%d\00", align 1
@.str.3 = private unnamed_addr constant [7 x i8] c"%d%d%d\00", align 1
@.str.4 = private unnamed_addr constant [5 x i8] c"%d%d\00", align 1

; Function Attrs: noinline nounwind uwtable
define dso_local i32 @main() #0 {
  %1 = alloca i32, align 4
  %2 = alloca i32, align 4
  %3 = alloca i32, align 4
  %4 = alloca i32, align 4
  %5 = alloca i32, align 4
  %6 = alloca i32, align 4
  %7 = alloca i32, align 4
  store i32 0, i32* %1, align 4
  %8 = call i32 (i8*, ...) @__isoc99_scanf(i8* getelementptr inbounds ([3 x i8], [3 x i8]* @.str, i64 0, i64 0), i32* %2)
  %9 = load i32, i32* %2, align 4
  %10 = sdiv i32 %9, 10000
  store i32 %10, i32* %3, align 4
  %11 = load i32, i32* %2, align 4
  %12 = load i32, i32* %3, align 4
  %13 = mul nsw i32 %12, 10000
  %14 = sub nsw i32 %11, %13
  %15 = sdiv i32 %14, 1000
  store i32 %15, i32* %4, align 4
  %16 = load i32, i32* %2, align 4
  %17 = load i32, i32* %3, align 4
  %18 = mul nsw i32 %17, 10000
  %19 = sub nsw i32 %16, %18
  %20 = load i32, i32* %4, align 4
  %21 = mul nsw i32 %20, 1000
  %22 = sub nsw i32 %19, %21
  %23 = sdiv i32 %22, 100
  store i32 %23, i32* %5, align 4
  %24 = load i32, i32* %2, align 4
  %25 = load i32, i32* %3, align 4
  %26 = mul nsw i32 %25, 10000
  %27 = sub nsw i32 %24, %26
  %28 = load i32, i32* %4, align 4
  %29 = mul nsw i32 %28, 1000
  %30 = sub nsw i32 %27, %29
  %31 = load i32, i32* %5, align 4
  %32 = mul nsw i32 %31, 100
  %33 = sub nsw i32 %30, %32
  %34 = sdiv i32 %33, 10
  store i32 %34, i32* %6, align 4
  %35 = load i32, i32* %2, align 4
  %36 = load i32, i32* %3, align 4
  %37 = mul nsw i32 %36, 10000
  %38 = sub nsw i32 %35, %37
  %39 = load i32, i32* %4, align 4
  %40 = mul nsw i32 %39, 1000
  %41 = sub nsw i32 %38, %40
  %42 = load i32, i32* %5, align 4
  %43 = mul nsw i32 %42, 100
  %44 = sub nsw i32 %41, %43
  %45 = load i32, i32* %6, align 4
  %46 = mul nsw i32 %45, 10
  %47 = sub nsw i32 %44, %46
  store i32 %47, i32* %7, align 4
  %48 = load i32, i32* %2, align 4
  %49 = icmp sge i32 %48, 10000
  br i1 %49, label %50, label %60

50:                                               ; preds = %0
  %51 = load i32, i32* %2, align 4
  %52 = icmp sle i32 %51, 99999
  br i1 %52, label %53, label %60

53:                                               ; preds = %50
  %54 = load i32, i32* %7, align 4
  %55 = load i32, i32* %6, align 4
  %56 = load i32, i32* %5, align 4
  %57 = load i32, i32* %4, align 4
  %58 = load i32, i32* %3, align 4
  %59 = call i32 (i8*, ...) @printf(i8* getelementptr inbounds ([11 x i8], [11 x i8]* @.str.1, i64 0, i64 0), i32 %54, i32 %55, i32 %56, i32 %57, i32 %58)
  br label %99

60:                                               ; preds = %50, %0
  %61 = load i32, i32* %2, align 4
  %62 = icmp sge i32 %61, 1000
  br i1 %62, label %63, label %72

63:                                               ; preds = %60
  %64 = load i32, i32* %2, align 4
  %65 = icmp sle i32 %64, 9999
  br i1 %65, label %66, label %72

66:                                               ; preds = %63
  %67 = load i32, i32* %7, align 4
  %68 = load i32, i32* %6, align 4
  %69 = load i32, i32* %5, align 4
  %70 = load i32, i32* %4, align 4
  %71 = call i32 (i8*, ...) @printf(i8* getelementptr inbounds ([9 x i8], [9 x i8]* @.str.2, i64 0, i64 0), i32 %67, i32 %68, i32 %69, i32 %70)
  br label %98

72:                                               ; preds = %63, %60
  %73 = load i32, i32* %2, align 4
  %74 = icmp sge i32 %73, 100
  br i1 %74, label %75, label %83

75:                                               ; preds = %72
  %76 = load i32, i32* %2, align 4
  %77 = icmp sle i32 %76, 999
  br i1 %77, label %78, label %83

78:                                               ; preds = %75
  %79 = load i32, i32* %7, align 4
  %80 = load i32, i32* %6, align 4
  %81 = load i32, i32* %5, align 4
  %82 = call i32 (i8*, ...) @printf(i8* getelementptr inbounds ([7 x i8], [7 x i8]* @.str.3, i64 0, i64 0), i32 %79, i32 %80, i32 %81)
  br label %97

83:                                               ; preds = %75, %72
  %84 = load i32, i32* %2, align 4
  %85 = icmp sge i32 %84, 10
  br i1 %85, label %86, label %93

86:                                               ; preds = %83
  %87 = load i32, i32* %2, align 4
  %88 = icmp sle i32 %87, 99
  br i1 %88, label %89, label %93

89:                                               ; preds = %86
  %90 = load i32, i32* %7, align 4
  %91 = load i32, i32* %6, align 4
  %92 = call i32 (i8*, ...) @printf(i8* getelementptr inbounds ([5 x i8], [5 x i8]* @.str.4, i64 0, i64 0), i32 %90, i32 %91)
  br label %96

93:                                               ; preds = %86, %83
  %94 = load i32, i32* %7, align 4
  %95 = call i32 (i8*, ...) @printf(i8* getelementptr inbounds ([3 x i8], [3 x i8]* @.str, i64 0, i64 0), i32 %94)
  br label %96

96:                                               ; preds = %93, %89
  br label %97

97:                                               ; preds = %96, %78
  br label %98

98:                                               ; preds = %97, %66
  br label %99

99:                                               ; preds = %98, %53
  ret i32 0
}

declare dso_local i32 @__isoc99_scanf(i8*, ...) #1

declare dso_local i32 @printf(i8*, ...) #1


!llvm.module.flags = !{!0}
!llvm.ident = !{!1}

!0 = !{i32 1, !"wchar_size", i32 4}
!1 = !{!"clang version 10.0.0-4ubuntu1 "}
