; ModuleID = 'source-C-CXX/15/886.c'
source_filename = "source-C-CXX/15/886.c"
target datalayout = "e-m:e-p270:32:32-p271:32:32-p272:64:64-i64:64-f80:128-n8:16:32:64-S128"
target triple = "x86_64-pc-linux-gnu"

@.str = private unnamed_addr constant [3 x i8] c"%d\00", align 1
@.str.1 = private unnamed_addr constant [11 x i8] c"%d%d%d%d%d\00", align 1
@.str.2 = private unnamed_addr constant [9 x i8] c"%d%d%d%d\00", align 1
@.str.3 = private unnamed_addr constant [7 x i8] c"%d%d%d\00", align 1
@.str.4 = private unnamed_addr constant [5 x i8] c"%d%d\00", align 1

; Function Attrs: nofree nounwind sspstrong uwtable
define dso_local i32 @main() local_unnamed_addr #0 {
  %1 = alloca i32, align 4
  %2 = bitcast i32* %1 to i8*
  call void @llvm.lifetime.start.p0i8(i64 4, i8* nonnull %2) #3
  %3 = call i32 (i8*, ...) @__isoc99_scanf(i8* getelementptr inbounds ([3 x i8], [3 x i8]* @.str, i64 0, i64 0), i32* nonnull %1)
  %4 = load i32, i32* %1, align 4, !tbaa !5
  %5 = sdiv i32 %4, 10000
  %6 = mul nsw i32 %5, -10000
  %7 = add i32 %6, %4
  %8 = sdiv i32 %7, 1000
  %9 = mul nsw i32 %8, -1000
  %10 = add i32 %9, %7
  %11 = sdiv i32 %10, 100
  %12 = mul nsw i32 %11, -100
  %13 = add i32 %12, %10
  %14 = sdiv i32 %13, 10
  %15 = mul nsw i32 %14, -10
  %16 = add i32 %15, %13
  %17 = add i32 %4, -10000
  %18 = icmp ult i32 %17, 90000
  br i1 %18, label %19, label %21

19:                                               ; preds = %0
  %20 = call i32 (i8*, ...) @printf(i8* nonnull dereferenceable(1) getelementptr inbounds ([11 x i8], [11 x i8]* @.str.1, i64 0, i64 0), i32 %16, i32 %14, i32 %11, i32 %8, i32 %5)
  br label %38

21:                                               ; preds = %0
  %22 = add i32 %4, -1000
  %23 = icmp ult i32 %22, 9000
  br i1 %23, label %24, label %26

24:                                               ; preds = %21
  %25 = call i32 (i8*, ...) @printf(i8* nonnull dereferenceable(1) getelementptr inbounds ([9 x i8], [9 x i8]* @.str.2, i64 0, i64 0), i32 %16, i32 %14, i32 %11, i32 %8)
  br label %38

26:                                               ; preds = %21
  %27 = add i32 %4, -100
  %28 = icmp ult i32 %27, 900
  br i1 %28, label %29, label %31

29:                                               ; preds = %26
  %30 = call i32 (i8*, ...) @printf(i8* nonnull dereferenceable(1) getelementptr inbounds ([7 x i8], [7 x i8]* @.str.3, i64 0, i64 0), i32 %16, i32 %14, i32 %11)
  br label %38

31:                                               ; preds = %26
  %32 = add i32 %4, -10
  %33 = icmp ult i32 %32, 90
  br i1 %33, label %34, label %36

34:                                               ; preds = %31
  %35 = call i32 (i8*, ...) @printf(i8* nonnull dereferenceable(1) getelementptr inbounds ([5 x i8], [5 x i8]* @.str.4, i64 0, i64 0), i32 %16, i32 %14)
  br label %38

36:                                               ; preds = %31
  %37 = call i32 (i8*, ...) @printf(i8* nonnull dereferenceable(1) getelementptr inbounds ([3 x i8], [3 x i8]* @.str, i64 0, i64 0), i32 %16)
  br label %38

38:                                               ; preds = %24, %34, %36, %29, %19
  call void @llvm.lifetime.end.p0i8(i64 4, i8* nonnull %2) #3
  ret i32 0
}

; Function Attrs: argmemonly mustprogress nofree nosync nounwind willreturn
declare void @llvm.lifetime.start.p0i8(i64 immarg, i8* nocapture) #1

; Function Attrs: nofree nounwind
declare noundef i32 @__isoc99_scanf(i8* nocapture noundef readonly, ...) local_unnamed_addr #2

; Function Attrs: nofree nounwind
declare noundef i32 @printf(i8* nocapture noundef readonly, ...) local_unnamed_addr #2

; Function Attrs: argmemonly mustprogress nofree nosync nounwind willreturn
declare void @llvm.lifetime.end.p0i8(i64 immarg, i8* nocapture) #1


!llvm.module.flags = !{!0, !1, !2, !3}
!llvm.ident = !{!4}

!0 = !{i32 1, !"wchar_size", i32 4}
!1 = !{i32 7, !"PIC Level", i32 2}
!2 = !{i32 7, !"PIE Level", i32 2}
!3 = !{i32 7, !"uwtable", i32 1}
!4 = !{!"clang version 13.0.0"}
!5 = !{!6, !6, i64 0}
!6 = !{!"int", !7, i64 0}
!7 = !{!"omnipotent char", !8, i64 0}
!8 = !{!"Simple C/C++ TBAA"}
